target datalayout = "e-m:e-p270:32:32-p271:32:32-p272:64:64-i64:64-i128:128-f80:128-n8:16:32:64-S128"
target triple = "x86_64-pc-linux-gnu"

%struct.H5F_blk_aggr_t = type { i64, i64, i64, i64, i64 }
%struct.H5MF_free_section_t = type { %struct.H5FS_section_info_t }
%struct.H5FS_section_info_t = type { i64, i64, i32, i32 }

; Function Attrs: nounwind uwtable
define i32 @H5MF__aggr_absorb(ptr noundef %0, ptr noundef %1, ptr noundef %2, i1 noundef zeroext %3) #0 {
  %5 = alloca ptr, align 8
  %6 = alloca ptr, align 8
  %7 = alloca ptr, align 8
  %8 = alloca i8, align 1
  store ptr %0, ptr %5, align 8
  store ptr %1, ptr %6, align 8
  store ptr %2, ptr %7, align 8
  %9 = zext i1 %3 to i8
  store i8 %9, ptr %8, align 1
  %10 = load ptr, ptr %6, align 8
  %11 = getelementptr inbounds %struct.H5F_blk_aggr_t, ptr %10, i32 0, i32 3
  %12 = load i64, ptr %11, align 8
  %13 = load ptr, ptr %7, align 8
  %14 = getelementptr inbounds %struct.H5MF_free_section_t, ptr %13, i32 0, i32 0
  %15 = getelementptr inbounds %struct.H5FS_section_info_t, ptr %14, i32 0, i32 1
  %16 = load i64, ptr %15, align 8
  %17 = add i64 %12, %16
  %18 = load ptr, ptr %6, align 8
  %19 = getelementptr inbounds %struct.H5F_blk_aggr_t, ptr %18, i32 0, i32 1
  %20 = load i64, ptr %19, align 8
  %21 = icmp uge i64 %17, %20
  br i1 %21, label %22, label %83

22:                                               ; preds = %4
  %23 = load i8, ptr %8, align 1
  %24 = trunc i8 %23 to i1
  br i1 %24, label %25, label %83

25:                                               ; preds = %22
  %26 = load ptr, ptr %7, align 8
  %27 = getelementptr inbounds %struct.H5MF_free_section_t, ptr %26, i32 0, i32 0
  %28 = getelementptr inbounds %struct.H5FS_section_info_t, ptr %27, i32 0, i32 0
  %29 = load i64, ptr %28, align 8
  %30 = load ptr, ptr %7, align 8
  %31 = getelementptr inbounds %struct.H5MF_free_section_t, ptr %30, i32 0, i32 0
  %32 = getelementptr inbounds %struct.H5FS_section_info_t, ptr %31, i32 0, i32 1
  %33 = load i64, ptr %32, align 8
  %34 = add i64 %29, %33
  %35 = icmp ne i64 %34, -1
  br i1 %35, label %36, label %59

36:                                               ; preds = %25
  %37 = load ptr, ptr %7, align 8
  %38 = getelementptr inbounds %struct.H5MF_free_section_t, ptr %37, i32 0, i32 0
  %39 = getelementptr inbounds %struct.H5FS_section_info_t, ptr %38, i32 0, i32 0
  %40 = load i64, ptr %39, align 8
  %41 = load ptr, ptr %7, align 8
  %42 = getelementptr inbounds %struct.H5MF_free_section_t, ptr %41, i32 0, i32 0
  %43 = getelementptr inbounds %struct.H5FS_section_info_t, ptr %42, i32 0, i32 1
  %44 = load i64, ptr %43, align 8
  %45 = add i64 %40, %44
  %46 = load ptr, ptr %6, align 8
  %47 = getelementptr inbounds %struct.H5F_blk_aggr_t, ptr %46, i32 0, i32 4
  %48 = load i64, ptr %47, align 8
  %49 = icmp eq i64 %45, %48
  br i1 %49, label %50, label %59

50:                                               ; preds = %36
  %51 = load ptr, ptr %6, align 8
  %52 = getelementptr inbounds %struct.H5F_blk_aggr_t, ptr %51, i32 0, i32 3
  %53 = load i64, ptr %52, align 8
  %54 = load ptr, ptr %7, align 8
  %55 = getelementptr inbounds %struct.H5MF_free_section_t, ptr %54, i32 0, i32 0
  %56 = getelementptr inbounds %struct.H5FS_section_info_t, ptr %55, i32 0, i32 1
  %57 = load i64, ptr %56, align 8
  %58 = add i64 %57, %53
  store i64 %58, ptr %56, align 8
  br label %76

59:                                               ; preds = %36, %25
  %60 = load ptr, ptr %6, align 8
  %61 = getelementptr inbounds %struct.H5F_blk_aggr_t, ptr %60, i32 0, i32 3
  %62 = load i64, ptr %61, align 8
  %63 = load ptr, ptr %7, align 8
  %64 = getelementptr inbounds %struct.H5MF_free_section_t, ptr %63, i32 0, i32 0
  %65 = getelementptr inbounds %struct.H5FS_section_info_t, ptr %64, i32 0, i32 0
  %66 = load i64, ptr %65, align 8
  %67 = sub i64 %66, %62
  store i64 %67, ptr %65, align 8
  %68 = load ptr, ptr %6, align 8
  %69 = getelementptr inbounds %struct.H5F_blk_aggr_t, ptr %68, i32 0, i32 3
  %70 = load i64, ptr %69, align 8
  %71 = load ptr, ptr %7, align 8
  %72 = getelementptr inbounds %struct.H5MF_free_section_t, ptr %71, i32 0, i32 0
  %73 = getelementptr inbounds %struct.H5FS_section_info_t, ptr %72, i32 0, i32 1
  %74 = load i64, ptr %73, align 8
  %75 = add i64 %74, %70
  store i64 %75, ptr %73, align 8
  br label %76

76:                                               ; preds = %59, %50
  %77 = load ptr, ptr %6, align 8
  %78 = getelementptr inbounds %struct.H5F_blk_aggr_t, ptr %77, i32 0, i32 2
  store i64 0, ptr %78, align 8
  %79 = load ptr, ptr %6, align 8
  %80 = getelementptr inbounds %struct.H5F_blk_aggr_t, ptr %79, i32 0, i32 4
  store i64 0, ptr %80, align 8
  %81 = load ptr, ptr %6, align 8
  %82 = getelementptr inbounds %struct.H5F_blk_aggr_t, ptr %81, i32 0, i32 3
  store i64 0, ptr %82, align 8
  br label %158

83:                                               ; preds = %22, %4
  %84 = load ptr, ptr %7, align 8
  %85 = getelementptr inbounds %struct.H5MF_free_section_t, ptr %84, i32 0, i32 0
  %86 = getelementptr inbounds %struct.H5FS_section_info_t, ptr %85, i32 0, i32 0
  %87 = load i64, ptr %86, align 8
  %88 = load ptr, ptr %7, align 8
  %89 = getelementptr inbounds %struct.H5MF_free_section_t, ptr %88, i32 0, i32 0
  %90 = getelementptr inbounds %struct.H5FS_section_info_t, ptr %89, i32 0, i32 1
  %91 = load i64, ptr %90, align 8
  %92 = add i64 %87, %91
  %93 = icmp ne i64 %92, -1
  br i1 %93, label %94, label %148

94:                                               ; preds = %83
  %95 = load ptr, ptr %7, align 8
  %96 = getelementptr inbounds %struct.H5MF_free_section_t, ptr %95, i32 0, i32 0
  %97 = getelementptr inbounds %struct.H5FS_section_info_t, ptr %96, i32 0, i32 0
  %98 = load i64, ptr %97, align 8
  %99 = load ptr, ptr %7, align 8
  %100 = getelementptr inbounds %struct.H5MF_free_section_t, ptr %99, i32 0, i32 0
  %101 = getelementptr inbounds %struct.H5FS_section_info_t, ptr %100, i32 0, i32 1
  %102 = load i64, ptr %101, align 8
  %103 = add i64 %98, %102
  %104 = load ptr, ptr %6, align 8
  %105 = getelementptr inbounds %struct.H5F_blk_aggr_t, ptr %104, i32 0, i32 4
  %106 = load i64, ptr %105, align 8
  %107 = icmp eq i64 %103, %106
  br i1 %107, label %108, label %148

108:                                              ; preds = %94
  %109 = load ptr, ptr %7, align 8
  %110 = getelementptr inbounds %struct.H5MF_free_section_t, ptr %109, i32 0, i32 0
  %111 = getelementptr inbounds %struct.H5FS_section_info_t, ptr %110, i32 0, i32 1
  %112 = load i64, ptr %111, align 8
  %113 = load ptr, ptr %6, align 8
  %114 = getelementptr inbounds %struct.H5F_blk_aggr_t, ptr %113, i32 0, i32 4
  %115 = load i64, ptr %114, align 8
  %116 = sub i64 %115, %112
  store i64 %116, ptr %114, align 8
  %117 = load ptr, ptr %7, align 8
  %118 = getelementptr inbounds %struct.H5MF_free_section_t, ptr %117, i32 0, i32 0
  %119 = getelementptr inbounds %struct.H5FS_section_info_t, ptr %118, i32 0, i32 1
  %120 = load i64, ptr %119, align 8
  %121 = load ptr, ptr %6, align 8
  %122 = getelementptr inbounds %struct.H5F_blk_aggr_t, ptr %121, i32 0, i32 3
  %123 = load i64, ptr %122, align 8
  %124 = add i64 %123, %120
  store i64 %124, ptr %122, align 8
  %125 = load ptr, ptr %6, align 8
  %126 = getelementptr inbounds %struct.H5F_blk_aggr_t, ptr %125, i32 0, i32 2
  %127 = load i64, ptr %126, align 8
  %128 = load ptr, ptr %7, align 8
  %129 = getelementptr inbounds %struct.H5MF_free_section_t, ptr %128, i32 0, i32 0
  %130 = getelementptr inbounds %struct.H5FS_section_info_t, ptr %129, i32 0, i32 1
  %131 = load i64, ptr %130, align 8
  %132 = icmp ult i64 %127, %131
  br i1 %132, label %133, label %137

133:                                              ; preds = %108
  %134 = load ptr, ptr %6, align 8
  %135 = getelementptr inbounds %struct.H5F_blk_aggr_t, ptr %134, i32 0, i32 2
  %136 = load i64, ptr %135, align 8
  br label %142

137:                                              ; preds = %108
  %138 = load ptr, ptr %7, align 8
  %139 = getelementptr inbounds %struct.H5MF_free_section_t, ptr %138, i32 0, i32 0
  %140 = getelementptr inbounds %struct.H5FS_section_info_t, ptr %139, i32 0, i32 1
  %141 = load i64, ptr %140, align 8
  br label %142

142:                                              ; preds = %137, %133
  %143 = phi i64 [ %136, %133 ], [ %141, %137 ]
  %144 = load ptr, ptr %6, align 8
  %145 = getelementptr inbounds %struct.H5F_blk_aggr_t, ptr %144, i32 0, i32 2
  %146 = load i64, ptr %145, align 8
  %147 = sub i64 %146, %143
  store i64 %147, ptr %145, align 8
  br label %157

148:                                              ; preds = %94, %83
  %149 = load ptr, ptr %7, align 8
  %150 = getelementptr inbounds %struct.H5MF_free_section_t, ptr %149, i32 0, i32 0
  %151 = getelementptr inbounds %struct.H5FS_section_info_t, ptr %150, i32 0, i32 1
  %152 = load i64, ptr %151, align 8
  %153 = load ptr, ptr %6, align 8
  %154 = getelementptr inbounds %struct.H5F_blk_aggr_t, ptr %153, i32 0, i32 3
  %155 = load i64, ptr %154, align 8
  %156 = add i64 %155, %152
  store i64 %156, ptr %154, align 8
  br label %157

157:                                              ; preds = %148, %142
  br label %158

158:                                              ; preds = %157, %76
  ret i32 0
}