; Function Attrs: mustprogress nofree norecurse nosync nounwind willreturn memory(argmem: readwrite) uwtable
define noundef i32 @H5MF__aggr_absorb(ptr nocapture noundef readnone %0, ptr nocapture noundef %1, ptr nocapture noundef %2, i1 noundef zeroext %3) local_unnamed_addr #3 {
  %5 = getelementptr inbounds i8, ptr %1, i64 24
  %6 = load i64, ptr %5, align 8
  %7 = getelementptr inbounds i8, ptr %2, i64 8
  %8 = load i64, ptr %7, align 8
  %9 = add i64 %8, %6
  %10 = getelementptr inbounds i8, ptr %1, i64 8
  %11 = load i64, ptr %10, align 8
  %.not = icmp uge i64 %9, %11
  %brmerge.not = and i1 %.not, %3
  %12 = load i64, ptr %2, align 8
  %13 = add i64 %12, %8
  %.not39 = icmp eq i64 %13, -1
  br i1 %brmerge.not, label %14, label %25

14:                                               ; preds = %4
  br i1 %.not39, label %19, label %15

15:                                               ; preds = %14
  %16 = getelementptr inbounds i8, ptr %1, i64 32
  %17 = load i64, ptr %16, align 8
  %18 = icmp eq i64 %13, %17
  br i1 %18, label %23, label %19

19:                                               ; preds = %15, %14
  %20 = sub i64 %12, %6
  store i64 %20, ptr %2, align 8
  %21 = load i64, ptr %5, align 8
  %22 = add i64 %21, %8
  br label %23

23:                                               ; preds = %15, %19
  %storemerge = phi i64 [ %22, %19 ], [ %9, %15 ]
  store i64 %storemerge, ptr %7, align 8
  %24 = getelementptr inbounds i8, ptr %1, i64 16
  tail call void @llvm.memset.p0.i64(ptr noundef nonnull align 8 dereferenceable(24) %24, i8 0, i64 24, i1 false)
  br label %38

25:                                               ; preds = %4
  br i1 %.not39, label %37, label %26

26:                                               ; preds = %25
  %27 = getelementptr inbounds i8, ptr %1, i64 32
  %28 = load i64, ptr %27, align 8
  %29 = icmp eq i64 %13, %28
  br i1 %29, label %30, label %37

30:                                               ; preds = %26
  store i64 %12, ptr %27, align 8
  %31 = load i64, ptr %7, align 8
  %32 = add i64 %31, %6
  store i64 %32, ptr %5, align 8
  %33 = getelementptr inbounds i8, ptr %1, i64 16
  %34 = load i64, ptr %33, align 8
  %35 = load i64, ptr %7, align 8
  %36 = tail call i64 @llvm.usub.sat.i64(i64 %34, i64 %35)
  store i64 %36, ptr %33, align 8
  br label %38

37:                                               ; preds = %26, %25
  store i64 %9, ptr %5, align 8
  br label %38

38:                                               ; preds = %30, %37, %23
  ret i32 0
}